target datalayout = "e-m:e-p270:32:32-p271:32:32-p272:64:64-i64:64-i128:128-f80:128-n8:16:32:64-S128"
target triple = "x86_64-pc-linux-gnu"

%struct.TValue = type { %union.Value, i8 }
%union.Value = type { ptr }
%struct.UpVal = type { ptr, i8, i8, %union.anon.4, %union.anon.5 }
%union.anon.4 = type { ptr }
%union.anon.5 = type { %struct.anon.6 }
%struct.anon.6 = type { ptr, ptr }
%struct.lua_State = type { ptr, i8, i8, i8, i8, i16, %union.StkIdRel, ptr, ptr, %union.StkIdRel, %union.StkIdRel, ptr, %union.StkIdRel, ptr, ptr, ptr, %struct.CallInfo, ptr, i64, i32, i32, i32, i32, i32, %struct.anon.3 }
%union.StkIdRel = type { ptr }
%struct.CallInfo = type { %union.StkIdRel, %union.StkIdRel, ptr, ptr, %union.anon.0, %union.anon.2, i32 }
%union.anon.0 = type { %struct.anon.1 }
%struct.anon.1 = type { ptr, i64, i64 }
%union.anon.2 = type { i32 }
%struct.anon.3 = type { i32, i32 }
%struct.global_State = type { ptr, ptr, i64, i64, i64, i64, %struct.stringtable, %struct.TValue, %struct.TValue, i32, [6 x i8], i8, i8, i8, i8, i8, i8, ptr, ptr, ptr, ptr, ptr, ptr, ptr, ptr, ptr, ptr, ptr, ptr, ptr, ptr, ptr, ptr, ptr, ptr, ptr, ptr, ptr, [25 x ptr], [9 x ptr], [53 x [2 x ptr]], ptr, ptr }
%struct.stringtable = type { ptr, i32, i32 }

; Function Attrs: nounwind uwtable
define internal ptr @newupval(ptr noundef %0, ptr noundef %1, ptr noundef %2) #0 {
  %4 = alloca ptr, align 8
  %5 = alloca ptr, align 8
  %6 = alloca ptr, align 8
  %7 = alloca ptr, align 8
  %8 = alloca ptr, align 8
  %9 = alloca ptr, align 8
  store ptr %0, ptr %4, align 8, !tbaa !4
  store ptr %1, ptr %5, align 8, !tbaa !31
  store ptr %2, ptr %6, align 8, !tbaa !33
  call void @llvm.lifetime.start.p0(i64 8, ptr %7) #5
  %10 = load ptr, ptr %4, align 8, !tbaa !4
  %11 = call ptr @luaC_newobj(ptr noundef %10, i8 noundef zeroext 9, i64 noundef 40)
  store ptr %11, ptr %7, align 8, !tbaa !11
  call void @llvm.lifetime.start.p0(i64 8, ptr %8) #5
  %12 = load ptr, ptr %7, align 8, !tbaa !11
  store ptr %12, ptr %8, align 8, !tbaa !23
  call void @llvm.lifetime.start.p0(i64 8, ptr %9) #5
  %13 = load ptr, ptr %6, align 8, !tbaa !33
  %14 = load ptr, ptr %13, align 8, !tbaa !23
  store ptr %14, ptr %9, align 8, !tbaa !23
  %15 = load ptr, ptr %5, align 8, !tbaa !31
  %16 = load ptr, ptr %8, align 8, !tbaa !23
  %17 = getelementptr inbounds nuw %struct.UpVal, ptr %16, i32 0, i32 3
  store ptr %15, ptr %17, align 8, !tbaa !25
  %18 = load ptr, ptr %9, align 8, !tbaa !23
  %19 = load ptr, ptr %8, align 8, !tbaa !23
  %20 = getelementptr inbounds nuw %struct.UpVal, ptr %19, i32 0, i32 4
  %21 = getelementptr inbounds nuw %struct.anon.6, ptr %20, i32 0, i32 0
  store ptr %18, ptr %21, align 8, !tbaa !25
  %22 = load ptr, ptr %6, align 8, !tbaa !33
  %23 = load ptr, ptr %8, align 8, !tbaa !23
  %24 = getelementptr inbounds nuw %struct.UpVal, ptr %23, i32 0, i32 4
  %25 = getelementptr inbounds nuw %struct.anon.6, ptr %24, i32 0, i32 1
  store ptr %22, ptr %25, align 8, !tbaa !25
  %26 = load ptr, ptr %9, align 8, !tbaa !23
  %27 = icmp ne ptr %26, null
  br i1 %27, label %28, label %35

28:                                               ; preds = %3
  %29 = load ptr, ptr %8, align 8, !tbaa !23
  %30 = getelementptr inbounds nuw %struct.UpVal, ptr %29, i32 0, i32 4
  %31 = getelementptr inbounds nuw %struct.anon.6, ptr %30, i32 0, i32 0
  %32 = load ptr, ptr %9, align 8, !tbaa !23
  %33 = getelementptr inbounds nuw %struct.UpVal, ptr %32, i32 0, i32 4
  %34 = getelementptr inbounds nuw %struct.anon.6, ptr %33, i32 0, i32 1
  store ptr %31, ptr %34, align 8, !tbaa !25
  br label %35

35:                                               ; preds = %28, %3
  %36 = load ptr, ptr %8, align 8, !tbaa !23
  %37 = load ptr, ptr %6, align 8, !tbaa !33
  store ptr %36, ptr %37, align 8, !tbaa !23
  %38 = load ptr, ptr %4, align 8, !tbaa !4
  %39 = getelementptr inbounds nuw %struct.lua_State, ptr %38, i32 0, i32 14
  %40 = load ptr, ptr %39, align 8, !tbaa !35
  %41 = load ptr, ptr %4, align 8, !tbaa !4
  %42 = icmp ne ptr %40, %41
  br i1 %42, label %56, label %43

43:                                               ; preds = %35
  %44 = load ptr, ptr %4, align 8, !tbaa !4
  %45 = getelementptr inbounds nuw %struct.lua_State, ptr %44, i32 0, i32 7
  %46 = load ptr, ptr %45, align 8, !tbaa !44
  %47 = getelementptr inbounds nuw %struct.global_State, ptr %46, i32 0, i32 34
  %48 = load ptr, ptr %47, align 8, !tbaa !45
  %49 = load ptr, ptr %4, align 8, !tbaa !4
  %50 = getelementptr inbounds nuw %struct.lua_State, ptr %49, i32 0, i32 14
  store ptr %48, ptr %50, align 8, !tbaa !35
  %51 = load ptr, ptr %4, align 8, !tbaa !4
  %52 = load ptr, ptr %4, align 8, !tbaa !4
  %53 = getelementptr inbounds nuw %struct.lua_State, ptr %52, i32 0, i32 7
  %54 = load ptr, ptr %53, align 8, !tbaa !44
  %55 = getelementptr inbounds nuw %struct.global_State, ptr %54, i32 0, i32 34
  store ptr %51, ptr %55, align 8, !tbaa !45
  br label %56

56:                                               ; preds = %43, %35
  %57 = load ptr, ptr %8, align 8, !tbaa !23
  call void @llvm.lifetime.end.p0(i64 8, ptr %9) #5
  call void @llvm.lifetime.end.p0(i64 8, ptr %8) #5
  call void @llvm.lifetime.end.p0(i64 8, ptr %7) #5
  ret ptr %57
}

; Function Attrs: nounwind uwtable
define hidden ptr @luaF_findupval(ptr noundef %0, ptr noundef %1) #0 {
  %3 = alloca ptr, align 8
  %4 = alloca ptr, align 8
  %5 = alloca ptr, align 8
  %6 = alloca ptr, align 8
  %7 = alloca ptr, align 8
  %8 = alloca i32, align 4
  store ptr %0, ptr %4, align 8, !tbaa !4
  store ptr %1, ptr %5, align 8, !tbaa !31
  call void @llvm.lifetime.start.p0(i64 8, ptr %6) #5
  %9 = load ptr, ptr %4, align 8, !tbaa !4
  %10 = getelementptr inbounds nuw %struct.lua_State, ptr %9, i32 0, i32 11
  store ptr %10, ptr %6, align 8, !tbaa !33
  call void @llvm.lifetime.start.p0(i64 8, ptr %7) #5
  br label %11

11:                                               ; preds = %31, %2
  %12 = load ptr, ptr %6, align 8, !tbaa !33
  %13 = load ptr, ptr %12, align 8, !tbaa !23
  store ptr %13, ptr %7, align 8, !tbaa !23
  %14 = icmp ne ptr %13, null
  br i1 %14, label %15, label %21

15:                                               ; preds = %11
  %16 = load ptr, ptr %7, align 8, !tbaa !23
  %17 = getelementptr inbounds nuw %struct.UpVal, ptr %16, i32 0, i32 3
  %18 = load ptr, ptr %17, align 8, !tbaa !25
  %19 = load ptr, ptr %5, align 8, !tbaa !31
  %20 = icmp uge ptr %18, %19
  br label %21

21:                                               ; preds = %15, %11
  %22 = phi i1 [ false, %11 ], [ %20, %15 ]
  br i1 %22, label %23, label %35

23:                                               ; preds = %21
  %24 = load ptr, ptr %7, align 8, !tbaa !23
  %25 = getelementptr inbounds nuw %struct.UpVal, ptr %24, i32 0, i32 3
  %26 = load ptr, ptr %25, align 8, !tbaa !25
  %27 = load ptr, ptr %5, align 8, !tbaa !31
  %28 = icmp eq ptr %26, %27
  br i1 %28, label %29, label %31

29:                                               ; preds = %23
  %30 = load ptr, ptr %7, align 8, !tbaa !23
  store ptr %30, ptr %3, align 8
  store i32 1, ptr %8, align 4
  br label %40

31:                                               ; preds = %23
  %32 = load ptr, ptr %7, align 8, !tbaa !23
  %33 = getelementptr inbounds nuw %struct.UpVal, ptr %32, i32 0, i32 4
  %34 = getelementptr inbounds nuw %struct.anon.6, ptr %33, i32 0, i32 0
  store ptr %34, ptr %6, align 8, !tbaa !33
  br label %11

35:                                               ; preds = %21
  %36 = load ptr, ptr %4, align 8, !tbaa !4
  %37 = load ptr, ptr %5, align 8, !tbaa !31
  %38 = load ptr, ptr %6, align 8, !tbaa !33
  %39 = call ptr @newupval(ptr noundef %36, ptr noundef %37, ptr noundef %38)
  store ptr %39, ptr %3, align 8
  store i32 1, ptr %8, align 4
  br label %40

40:                                               ; preds = %35, %29
  call void @llvm.lifetime.end.p0(i64 8, ptr %7) #5
  call void @llvm.lifetime.end.p0(i64 8, ptr %6) #5
  %41 = load ptr, ptr %3, align 8
  ret ptr %41
}