; Function Attrs: nounwind uwtable
define hidden ptr @luaF_findupval(ptr noundef %0, ptr noundef %1) local_unnamed_addr #0 {
  %3 = getelementptr inbounds nuw i8, ptr %0, i64 56
  %4 = load ptr, ptr %3, align 8, !tbaa !14
  %.not19 = icmp eq ptr %4, null
  br i1 %.not19, label %.critedge, label %.lr.ph.preheader

.lr.ph.preheader:                                 ; preds = %2
  %5 = getelementptr inbounds nuw i8, ptr %4, i64 16
  %6 = load ptr, ptr %5, align 8, !tbaa !16
  %.not1626 = icmp ult ptr %6, %1
  br i1 %.not1626, label %.critedge, label %.lr.ph27

.lr.ph:                                           ; preds = %12
  %7 = getelementptr inbounds nuw i8, ptr %14, i64 16
  %8 = load ptr, ptr %7, align 8, !tbaa !16
  %.not16 = icmp ult ptr %8, %1
  br i1 %.not16, label %.critedge.loopexit, label %.lr.ph27

.lr.ph27:                                         ; preds = %.lr.ph.preheader, %.lr.ph
  %9 = phi ptr [ %8, %.lr.ph ], [ %6, %.lr.ph.preheader ]
  %10 = phi ptr [ %14, %.lr.ph ], [ %4, %.lr.ph.preheader ]
  %11 = icmp eq ptr %9, %1
  br i1 %11, label %newupval.exit, label %12

12:                                               ; preds = %.lr.ph27
  %13 = getelementptr inbounds nuw i8, ptr %10, i64 24
  %14 = load ptr, ptr %13, align 8, !tbaa !14
  %.not = icmp eq ptr %14, null
  br i1 %.not, label %.critedge.loopexit, label %.lr.ph

.critedge.loopexit:                               ; preds = %.lr.ph, %12
  %15 = getelementptr inbounds nuw i8, ptr %10, i64 24
  br label %.critedge

.critedge:                                        ; preds = %.critedge.loopexit, %.lr.ph.preheader, %2
  %.012.lcssa = phi ptr [ %3, %2 ], [ %3, %.lr.ph.preheader ], [ %15, %.critedge.loopexit ]
  %16 = tail call ptr @luaC_newobj(ptr noundef %0, i8 noundef zeroext 9, i64 noundef 40) #7
  %17 = load ptr, ptr %.012.lcssa, align 8, !tbaa !14
  %18 = getelementptr inbounds nuw i8, ptr %16, i64 16
  store ptr %1, ptr %18, align 8, !tbaa !16
  %19 = getelementptr inbounds nuw i8, ptr %16, i64 24
  store ptr %17, ptr %19, align 8, !tbaa !16
  %20 = getelementptr inbounds nuw i8, ptr %16, i64 32
  store ptr %.012.lcssa, ptr %20, align 8, !tbaa !16
  %.not.i = icmp eq ptr %17, null
  br i1 %.not.i, label %23, label %21

21:                                               ; preds = %.critedge
  %22 = getelementptr inbounds nuw i8, ptr %17, i64 32
  store ptr %19, ptr %22, align 8, !tbaa !16
  br label %23

23:                                               ; preds = %21, %.critedge
  store ptr %16, ptr %.012.lcssa, align 8, !tbaa !14
  %24 = getelementptr inbounds nuw i8, ptr %0, i64 80
  %25 = load ptr, ptr %24, align 8, !tbaa !22
  %.not22.i = icmp eq ptr %25, %0
  br i1 %.not22.i, label %26, label %newupval.exit

26:                                               ; preds = %23
  %27 = getelementptr inbounds nuw i8, ptr %0, i64 24
  %28 = load ptr, ptr %27, align 8, !tbaa !33
  %29 = getelementptr inbounds nuw i8, ptr %28, i64 248
  %30 = load ptr, ptr %29, align 8, !tbaa !34
  store ptr %30, ptr %24, align 8, !tbaa !22
  store ptr %0, ptr %29, align 8, !tbaa !34
  br label %newupval.exit

newupval.exit:                                    ; preds = %.lr.ph27, %26, %23
  %.0 = phi ptr [ %16, %23 ], [ %16, %26 ], [ %10, %.lr.ph27 ]
  ret ptr %.0
}